target datalayout = "e-m:e-p270:32:32-p271:32:32-p272:64:64-i64:64-i128:128-f80:128-n8:16:32:64-S128"
target triple = "x86_64-pc-linux-gnu"

%"class.clang::ParsedAttributesView" = type { %"class.clang::SourceRange", %"class.llvm::SmallVector.676" }
%"class.clang::SourceRange" = type { %"class.clang::SourceLocation", %"class.clang::SourceLocation" }
%"class.clang::SourceLocation" = type { i32 }
%"class.llvm::SmallVector.676" = type { %"class.llvm::SmallVectorImpl.677", %"struct.llvm::SmallVectorStorage.680" }
%"class.llvm::SmallVectorImpl.677" = type { %"class.llvm::SmallVectorTemplateBase.678" }
%"class.llvm::SmallVectorTemplateBase.678" = type { %"class.llvm::SmallVectorTemplateCommon.679" }
%"class.llvm::SmallVectorTemplateCommon.679" = type { %"class.llvm::SmallVectorBase" }
%"class.llvm::SmallVectorBase" = type { ptr, i32, i32 }
%"struct.llvm::SmallVectorStorage.680" = type { [48 x i8] }
%"class.clang::CXXScopeSpec" = type { %"class.clang::SourceRange", %"class.clang::NestedNameSpecifierLocBuilder", %"class.llvm::ArrayRef.699" }
%"class.clang::NestedNameSpecifierLocBuilder" = type { ptr, ptr, i32, i32 }
%"class.llvm::ArrayRef.699" = type { ptr, i64 }
%"class.clang::UnqualifiedId" = type { i32, %union.anon.701, %"class.clang::SourceLocation", %"class.clang::SourceLocation" }
%union.anon.701 = type { ptr, [8 x i8] }
%"class.clang::ParsedAttributes" = type { %"class.clang::ParsedAttributesView", %"class.clang::AttributePool" }
%"class.clang::AttributePool" = type { ptr, %"class.llvm::SmallVector.676" }
%"class.clang::Declarator" = type { ptr, %"class.clang::CXXScopeSpec", %"class.clang::UnqualifiedId", %"class.clang::SourceRange", i32, [4 x i8], %"class.clang::DecompositionDeclarator", %"class.llvm::SmallVector.711", i16, %"class.clang::ParsedAttributes", ptr, ptr, ptr, %"class.llvm::ArrayRef.699", ptr, %union.anon.716, %"class.clang::SourceLocation", %"class.clang::SourceLocation", ptr }
%"class.clang::DecompositionDeclarator" = type <{ %"class.clang::SourceLocation", %"class.clang::SourceLocation", ptr, i32, [4 x i8] }>
%"class.llvm::SmallVector.711" = type { %"class.llvm::SmallVectorImpl.712", %"struct.llvm::SmallVectorStorage.715" }
%"class.llvm::SmallVectorImpl.712" = type { %"class.llvm::SmallVectorTemplateBase.713" }
%"class.llvm::SmallVectorTemplateBase.713" = type { %"class.llvm::SmallVectorTemplateCommon.714" }
%"class.llvm::SmallVectorTemplateCommon.714" = type { %"class.llvm::SmallVectorBase" }
%"struct.llvm::SmallVectorStorage.715" = type { [1408 x i8] }
%union.anon.716 = type { [16 x %"struct.clang::DecompositionDeclarator::Binding"] }
%"struct.clang::DecompositionDeclarator::Binding" = type { ptr, %"class.clang::SourceLocation", [4 x i8], %"class.std::optional.725" }
%"class.std::optional.725" = type { %"struct.std::_Optional_base.726" }
%"struct.std::_Optional_base.726" = type { %"struct.std::_Optional_payload.728" }
%"struct.std::_Optional_payload.728" = type { %"struct.std::_Optional_payload.base.732", [7 x i8] }
%"struct.std::_Optional_payload.base.732" = type { %"struct.std::_Optional_payload_base.base.731" }
%"struct.std::_Optional_payload_base.base.731" = type <{ %"union.std::_Optional_payload_base<clang::ParsedAttributes>::_Storage", i8 }>
%"union.std::_Optional_payload_base<clang::ParsedAttributes>::_Storage" = type { %"class.clang::ParsedAttributes" }

; Function Attrs: mustprogress nounwind uwtable
define linkonce_odr hidden noundef zeroext i1 @_ZNK5clang23DecompositionDeclarator5isSetEv(ptr noundef nonnull align 8 dereferenceable(20) %0) #0 comdat align 2 {
  %2 = alloca ptr, align 8
  store ptr %0, ptr %2, align 8
  %3 = load ptr, ptr %2, align 8
  %4 = getelementptr inbounds nuw %"class.clang::DecompositionDeclarator", ptr %3, i32 0, i32 0
  %5 = call noundef zeroext i1 @_ZNK5clang14SourceLocation7isValidEv(ptr noundef nonnull align 4 dereferenceable(4) %4)
  ret i1 %5
}

; Function Attrs: mustprogress nounwind uwtable
define linkonce_odr hidden noundef zeroext i1 @_ZNK5clang10Declarator25isDecompositionDeclaratorEv(ptr noundef nonnull align 8 dereferenceable(4456) %0) #0 comdat align 2 {
  %2 = alloca ptr, align 8
  store ptr %0, ptr %2, align 8
  %3 = load ptr, ptr %2, align 8
  %4 = getelementptr inbounds nuw %"class.clang::Declarator", ptr %3, i32 0, i32 6
  %5 = call noundef zeroext i1 @_ZNK5clang23DecompositionDeclarator5isSetEv(ptr noundef nonnull align 8 dereferenceable(20) %4)
  ret i1 %5
}

; Function Attrs: mustprogress nounwind uwtable
define linkonce_odr hidden noundef i32 @_ZNK5clang13UnqualifiedId7getKindEv(ptr noundef nonnull align 8 dereferenceable(32) %0) #0 comdat align 2 {
  %2 = alloca ptr, align 8
  store ptr %0, ptr %2, align 8
  %3 = load ptr, ptr %2, align 8
  %4 = getelementptr inbounds nuw %"class.clang::UnqualifiedId", ptr %3, i32 0, i32 0
  %5 = load i32, ptr %4, align 8
  ret i32 %5
}

; Function Attrs: mustprogress nounwind uwtable
define linkonce_odr hidden noundef zeroext i1 @_ZNK5clang10Declarator7hasNameEv(ptr noundef nonnull align 8 dereferenceable(4456) %0) #0 comdat align 2 {
  %2 = alloca ptr, align 8
  store ptr %0, ptr %2, align 8
  %3 = load ptr, ptr %2, align 8
  %4 = getelementptr inbounds nuw %"class.clang::Declarator", ptr %3, i32 0, i32 2
  %5 = call noundef i32 @_ZNK5clang13UnqualifiedId7getKindEv(ptr noundef nonnull align 8 dereferenceable(32) %4)
  %6 = icmp ne i32 %5, 0
  br i1 %6, label %14, label %7

7:                                                ; preds = %1
  %8 = getelementptr inbounds nuw %"class.clang::Declarator", ptr %3, i32 0, i32 2
  %9 = getelementptr inbounds nuw %"class.clang::UnqualifiedId", ptr %8, i32 0, i32 1
  %10 = load ptr, ptr %9, align 8
  %11 = icmp ne ptr %10, null
  br i1 %11, label %14, label %12

12:                                               ; preds = %7
  %13 = call noundef zeroext i1 @_ZNK5clang10Declarator25isDecompositionDeclaratorEv(ptr noundef nonnull align 8 dereferenceable(4456) %3)
  br label %14

14:                                               ; preds = %12, %7, %1
  %15 = phi i1 [ true, %7 ], [ true, %1 ], [ %13, %12 ]
  ret i1 %15
}

; Function Attrs: mustprogress nounwind uwtable
define linkonce_odr hidden i32 @_ZNK5clang10Declarator16getIdentifierLocEv(ptr noundef nonnull align 8 dereferenceable(4456) %0) #0 comdat align 2 {
  %2 = alloca %"class.clang::SourceLocation", align 4
  %3 = alloca ptr, align 8
  store ptr %0, ptr %3, align 8
  %4 = load ptr, ptr %3, align 8
  %5 = getelementptr inbounds nuw %"class.clang::Declarator", ptr %4, i32 0, i32 2
  %6 = getelementptr inbounds nuw %"class.clang::UnqualifiedId", ptr %5, i32 0, i32 2
  call void @llvm.memcpy.p0.p0.i64(ptr align 4 %2, ptr align 8 %6, i64 4, i1 false)
  %7 = getelementptr inbounds nuw %"class.clang::SourceLocation", ptr %2, i32 0, i32 0
  %8 = load i32, ptr %7, align 4
  ret i32 %8
}

; Function Attrs: mustprogress nounwind uwtable
define linkonce_odr hidden void @_ZN5clang10Declarator14setEllipsisLocENS_14SourceLocationE(ptr noundef nonnull align 8 dereferenceable(4456) %0, i32 %1) #0 comdat align 2 {
  %3 = alloca %"class.clang::SourceLocation", align 4
  %4 = alloca ptr, align 8
  %5 = getelementptr inbounds nuw %"class.clang::SourceLocation", ptr %3, i32 0, i32 0
  store i32 %1, ptr %5, align 4
  store ptr %0, ptr %4, align 8
  %6 = load ptr, ptr %4, align 8
  %7 = getelementptr inbounds nuw %"class.clang::Declarator", ptr %6, i32 0, i32 17
  call void @llvm.memcpy.p0.p0.i64(ptr align 4 %7, ptr align 4 %3, i64 4, i1 false)
  ret void
}

; Function Attrs: mustprogress nounwind uwtable
define linkonce_odr hidden noundef zeroext i1 @_ZNK5clang14SourceLocation7isValidEv(ptr noundef nonnull align 4 dereferenceable(4) %0) #0 comdat align 2 {
  %2 = alloca ptr, align 8
  store ptr %0, ptr %2, align 8
  %3 = load ptr, ptr %2, align 8
  %4 = getelementptr inbounds nuw %"class.clang::SourceLocation", ptr %3, i32 0, i32 0
  %5 = load i32, ptr %4, align 4
  %6 = icmp ne i32 %5, 0
  ret i1 %6
}

; Function Attrs: mustprogress nounwind uwtable
define linkonce_odr hidden i32 @_ZNK5clang10Declarator14getEllipsisLocEv(ptr noundef nonnull align 8 dereferenceable(4456) %0) #0 comdat align 2 {
  %2 = alloca %"class.clang::SourceLocation", align 4
  %3 = alloca ptr, align 8
  store ptr %0, ptr %3, align 8
  %4 = load ptr, ptr %3, align 8
  %5 = getelementptr inbounds nuw %"class.clang::Declarator", ptr %4, i32 0, i32 17
  call void @llvm.memcpy.p0.p0.i64(ptr align 4 %2, ptr align 4 %5, i64 4, i1 false)
  %6 = getelementptr inbounds nuw %"class.clang::SourceLocation", ptr %2, i32 0, i32 0
  %7 = load i32, ptr %6, align 4
  ret i32 %7
}

; Function Attrs: mustprogress nounwind uwtable
define dso_local void @_ZN5clang6Parser37DiagnoseMisplacedEllipsisInDeclaratorENS_14SourceLocationERNS_10DeclaratorE(ptr noundef nonnull align 8 dereferenceable(2936) %0, i32 %1, ptr noundef nonnull align 8 dereferenceable(4456) %2) #0 align 2 {
  %4 = alloca %"class.clang::SourceLocation", align 4
  %5 = alloca ptr, align 8
  %6 = alloca ptr, align 8
  %7 = alloca i8, align 1
  %8 = alloca %"class.clang::SourceLocation", align 4
  %9 = alloca %"class.clang::SourceLocation", align 4
  %10 = alloca %"class.clang::SourceLocation", align 4
  %11 = alloca %"class.clang::SourceLocation", align 4
  %12 = getelementptr inbounds nuw %"class.clang::SourceLocation", ptr %4, i32 0, i32 0
  store i32 %1, ptr %12, align 4
  store ptr %0, ptr %5, align 8
  store ptr %2, ptr %6, align 8
  %13 = load ptr, ptr %5, align 8
  %14 = load ptr, ptr %6, align 8
  %15 = call i32 @_ZNK5clang10Declarator14getEllipsisLocEv(ptr noundef nonnull align 8 dereferenceable(4456) %14)
  %16 = getelementptr inbounds nuw %"class.clang::SourceLocation", ptr %8, i32 0, i32 0
  store i32 %15, ptr %16, align 4
  %17 = call noundef zeroext i1 @_ZNK5clang14SourceLocation7isValidEv(ptr noundef nonnull align 4 dereferenceable(4) %8)
  %18 = zext i1 %17 to i8
  store i8 %18, ptr %7, align 1
  %19 = load i8, ptr %7, align 1
  %20 = trunc i8 %19 to i1
  br i1 %20, label %25, label %21

21:                                               ; preds = %3
  %22 = load ptr, ptr %6, align 8
  call void @llvm.memcpy.p0.p0.i64(ptr align 4 %9, ptr align 4 %4, i64 4, i1 false)
  %23 = getelementptr inbounds nuw %"class.clang::SourceLocation", ptr %9, i32 0, i32 0
  %24 = load i32, ptr %23, align 4
  call void @_ZN5clang10Declarator14setEllipsisLocENS_14SourceLocationE(ptr noundef nonnull align 8 dereferenceable(4456) %22, i32 %24)
  br label %25

25:                                               ; preds = %21, %3
  call void @llvm.memcpy.p0.p0.i64(ptr align 4 %10, ptr align 4 %4, i64 4, i1 false)
  %26 = load ptr, ptr %6, align 8
  %27 = call i32 @_ZNK5clang10Declarator16getIdentifierLocEv(ptr noundef nonnull align 8 dereferenceable(4456) %26)
  %28 = getelementptr inbounds nuw %"class.clang::SourceLocation", ptr %11, i32 0, i32 0
  store i32 %27, ptr %28, align 4
  %29 = load i8, ptr %7, align 1
  %30 = trunc i8 %29 to i1
  %31 = load ptr, ptr %6, align 8
  %32 = call noundef zeroext i1 @_ZNK5clang10Declarator7hasNameEv(ptr noundef nonnull align 8 dereferenceable(4456) %31)
  %33 = getelementptr inbounds nuw %"class.clang::SourceLocation", ptr %10, i32 0, i32 0
  %34 = load i32, ptr %33, align 4
  %35 = getelementptr inbounds nuw %"class.clang::SourceLocation", ptr %11, i32 0, i32 0
  %36 = load i32, ptr %35, align 4
  call void @_ZN5clang6Parser25DiagnoseMisplacedEllipsisENS_14SourceLocationES1_bb(ptr noundef nonnull align 8 dereferenceable(2936) %13, i32 %34, i32 %36, i1 noundef zeroext %30, i1 noundef zeroext %32)
  ret void
}