; Function Attrs: mustprogress nounwind uwtable
define dso_local void @_ZN5clang6Parser37DiagnoseMisplacedEllipsisInDeclaratorENS_14SourceLocationERNS_10DeclaratorE(ptr noundef nonnull align 8 dereferenceable(2936) %0, i32 %1, ptr nocapture noundef nonnull align 8 dereferenceable(4456) %2) local_unnamed_addr #0 align 2 {
  %4 = getelementptr inbounds nuw i8, ptr %2, i64 4444
  %.sroa.0.0.copyload.i = load i32, ptr %4, align 4
  %5 = icmp ne i32 %.sroa.0.0.copyload.i, 0
  br i1 %5, label %7, label %6

6:                                                ; preds = %3
  store i32 %1, ptr %4, align 4
  br label %7

7:                                                ; preds = %6, %3
  %8 = getelementptr inbounds i8, ptr %2, i64 80
  %.sroa.0.0.copyload.i10 = load i32, ptr %8, align 8
  %9 = getelementptr inbounds nuw i8, ptr %2, i64 56
  %10 = load i32, ptr %9, align 8
  %.not.i = icmp eq i32 %10, 0
  %11 = getelementptr inbounds i8, ptr %2, i64 64
  %12 = load ptr, ptr %11, align 8
  %.not1.i = icmp eq ptr %12, null
  %or.cond.i = select i1 %.not.i, i1 %.not1.i, i1 false
  br i1 %or.cond.i, label %13, label %_ZNK5clang10Declarator7hasNameEv.exit

13:                                               ; preds = %7
  %14 = getelementptr inbounds nuw i8, ptr %2, i64 104
  %15 = load i32, ptr %14, align 8
  %16 = icmp ne i32 %15, 0
  br label %_ZNK5clang10Declarator7hasNameEv.exit

_ZNK5clang10Declarator7hasNameEv.exit:            ; preds = %7, %13
  %17 = phi i1 [ true, %7 ], [ %16, %13 ]
  tail call void @_ZN5clang6Parser25DiagnoseMisplacedEllipsisENS_14SourceLocationES1_bb(ptr noundef nonnull align 8 dereferenceable(2936) %0, i32 %1, i32 %.sroa.0.0.copyload.i10, i1 noundef zeroext %5, i1 noundef zeroext %17)
  ret void
}